target datalayout = "e-m:e-p270:32:32-p271:32:32-p272:64:64-i64:64-i128:128-f80:128-n8:16:32:64-S128"
target triple = "x86_64-pc-linux-gnu"

%struct._value_string = type { i32, ptr }

@.str.13 = private unnamed_addr constant [8 x i8] c"Unknown\00", align 1
@.str.16 = private unnamed_addr constant [1 x i8] zeroinitializer, align 1
@.str.21 = private unnamed_addr constant [10 x i8] c"No NLPIDs\00", align 1
@.str.22 = private unnamed_addr constant [10 x i8] c"NLPID%s: \00", align 1
@.str.23 = private unnamed_addr constant [2 x i8] c"s\00", align 1
@.str.24 = private unnamed_addr constant [12 x i8] c"%s (0x%02x)\00", align 1
@.str.25 = private unnamed_addr constant [19 x i8] c"IEEE 802.1aq (SPB)\00", align 1
@nlpid_vals = external constant [0 x %struct._value_string], align 8
@.str.26 = private unnamed_addr constant [3 x i8] c", \00", align 1

; Function Attrs: null_pointer_is_valid sspstrong uwtable
define hidden void @isis_dissect_nlpid_clv(ptr noundef %0, ptr noundef %1, i32 noundef %2, i32 noundef %3, i32 noundef %4, i32 noundef %5) #0 {
  %7 = alloca ptr, align 8
  %8 = alloca ptr, align 8
  %9 = alloca i32, align 4
  %10 = alloca i32, align 4
  %11 = alloca i32, align 4
  %12 = alloca i32, align 4
  %13 = alloca ptr, align 8
  %14 = alloca ptr, align 8
  %15 = alloca i8, align 1
  store ptr %0, ptr %7, align 8
  store ptr %1, ptr %8, align 8
  store i32 %2, ptr %9, align 4
  store i32 %3, ptr %10, align 4
  store i32 %4, ptr %11, align 4
  store i32 %5, ptr %12, align 4
  call void @llvm.lifetime.start.p0(i64 8, ptr %13) #3
  call void @llvm.lifetime.start.p0(i64 8, ptr %14) #3
  call void @llvm.lifetime.start.p0(i64 1, ptr %15) #3
  %16 = load i32, ptr %12, align 4
  %17 = icmp sle i32 %16, 0
  br i1 %17, label %18, label %24

18:                                               ; preds = %6
  %19 = load ptr, ptr %8, align 8
  %20 = load ptr, ptr %7, align 8
  %21 = load i32, ptr %11, align 4
  %22 = load i32, ptr %9, align 4
  %23 = call ptr (ptr, ptr, i32, i32, i32, ptr, ptr, ...) @proto_tree_add_subtree_format(ptr noundef %19, ptr noundef %20, i32 noundef %21, i32 noundef 0, i32 noundef %22, ptr noundef null, ptr noundef @.str.21)
  br label %70

24:                                               ; preds = %6
  %25 = load ptr, ptr %8, align 8
  %26 = load ptr, ptr %7, align 8
  %27 = load i32, ptr %11, align 4
  %28 = load i32, ptr %12, align 4
  %29 = load i32, ptr %9, align 4
  %30 = load i32, ptr %12, align 4
  %31 = icmp sgt i32 %30, 1
  %32 = select i1 %31, ptr @.str.23, ptr @.str.16
  %33 = call ptr (ptr, ptr, i32, i32, i32, ptr, ptr, ...) @proto_tree_add_subtree_format(ptr noundef %25, ptr noundef %26, i32 noundef %27, i32 noundef %28, i32 noundef %29, ptr noundef %14, ptr noundef @.str.22, ptr noundef %32)
  store ptr %33, ptr %13, align 8
  br label %34

34:                                               ; preds = %59, %24
  %35 = load i32, ptr %12, align 4
  %36 = add i32 %35, -1
  store i32 %36, ptr %12, align 4
  %37 = icmp sgt i32 %35, 0
  br i1 %37, label %38, label %69

38:                                               ; preds = %34
  %39 = load ptr, ptr %7, align 8
  %40 = load i32, ptr %11, align 4
  %41 = call zeroext i8 @tvb_get_uint8(ptr noundef %39, i32 noundef %40)
  store i8 %41, ptr %15, align 1
  %42 = load ptr, ptr %14, align 8
  %43 = load i8, ptr %15, align 1
  %44 = zext i8 %43 to i32
  %45 = icmp eq i32 %44, 193
  br i1 %45, label %46, label %47

46:                                               ; preds = %38
  br label %51

47:                                               ; preds = %38
  %48 = load i8, ptr %15, align 1
  %49 = zext i8 %48 to i32
  %50 = call ptr @val_to_str_const(i32 noundef %49, ptr noundef @nlpid_vals, ptr noundef @.str.13)
  br label %51

51:                                               ; preds = %47, %46
  %52 = phi ptr [ @.str.25, %46 ], [ %50, %47 ]
  %53 = load i8, ptr %15, align 1
  %54 = zext i8 %53 to i32
  call void (ptr, ptr, ...) @proto_item_append_text(ptr noundef %42, ptr noundef @.str.24, ptr noundef %52, i32 noundef %54)
  %55 = load i32, ptr %12, align 4
  %56 = icmp ne i32 %55, 0
  br i1 %56, label %57, label %59

57:                                               ; preds = %51
  %58 = load ptr, ptr %14, align 8
  call void (ptr, ptr, ...) @proto_item_append_text(ptr noundef %58, ptr noundef @.str.26)
  br label %59

59:                                               ; preds = %57, %51
  %60 = load ptr, ptr %13, align 8
  %61 = load i32, ptr %10, align 4
  %62 = load ptr, ptr %7, align 8
  %63 = load i32, ptr %11, align 4
  %64 = load i8, ptr %15, align 1
  %65 = zext i8 %64 to i32
  %66 = call ptr @proto_tree_add_uint(ptr noundef %60, i32 noundef %61, ptr noundef %62, i32 noundef %63, i32 noundef 1, i32 noundef %65)
  %67 = load i32, ptr %11, align 4
  %68 = add i32 %67, 1
  store i32 %68, ptr %11, align 4
  br label %34, !llvm.loop !13

69:                                               ; preds = %34
  br label %70

70:                                               ; preds = %69, %18
  call void @llvm.lifetime.end.p0(i64 1, ptr %15) #3
  call void @llvm.lifetime.end.p0(i64 8, ptr %14) #3
  call void @llvm.lifetime.end.p0(i64 8, ptr %13) #3
  ret void
}