; Function Attrs: null_pointer_is_valid sspstrong uwtable
define hidden void @isis_dissect_nlpid_clv(ptr noundef %0, ptr noundef %1, i32 noundef %2, i32 noundef %3, i32 noundef %4, i32 noundef %5) local_unnamed_addr #0 {
  %7 = alloca ptr, align 8
  call void @llvm.lifetime.start.p0(i64 8, ptr nonnull %7) #3
  %8 = icmp slt i32 %5, 1
  br i1 %8, label %9, label %11

9:                                                ; preds = %6
  %10 = tail call ptr (ptr, ptr, i32, i32, i32, ptr, ptr, ...) @proto_tree_add_subtree_format(ptr noundef %1, ptr noundef %0, i32 noundef %4, i32 noundef 0, i32 noundef %2, ptr noundef null, ptr noundef nonnull @.str.21)
  br label %.loopexit

11:                                               ; preds = %6
  %.not = icmp eq i32 %5, 1
  %12 = select i1 %.not, ptr @.str.16, ptr @.str.23
  %13 = call ptr (ptr, ptr, i32, i32, i32, ptr, ptr, ...) @proto_tree_add_subtree_format(ptr noundef %1, ptr noundef %0, i32 noundef %4, i32 noundef %5, i32 noundef %2, ptr noundef nonnull %7, ptr noundef nonnull @.str.22, ptr noundef nonnull %12)
  br label %14

14:                                               ; preds = %24, %11
  %.in = phi i32 [ %5, %11 ], [ %15, %24 ]
  %.027 = phi i32 [ %4, %11 ], [ %27, %24 ]
  %15 = add nsw i32 %.in, -1
  %16 = call zeroext i8 @tvb_get_uint8(ptr noundef %0, i32 noundef %.027)
  %17 = load ptr, ptr %7, align 8
  %18 = zext i8 %16 to i32
  %19 = icmp eq i8 %16, -63
  br i1 %19, label %22, label %20

20:                                               ; preds = %14
  %21 = call ptr @val_to_str_const(i32 noundef %18, ptr noundef nonnull @nlpid_vals, ptr noundef nonnull @.str.13)
  br label %22

22:                                               ; preds = %14, %20
  %23 = phi ptr [ %21, %20 ], [ @.str.25, %14 ]
  call void (ptr, ptr, ...) @proto_item_append_text(ptr noundef %17, ptr noundef nonnull @.str.24, ptr noundef %23, i32 noundef %18)
  %.not26 = icmp eq i32 %15, 0
  br i1 %.not26, label %.loopexit.loopexit, label %24

24:                                               ; preds = %22
  %25 = load ptr, ptr %7, align 8
  call void (ptr, ptr, ...) @proto_item_append_text(ptr noundef %25, ptr noundef nonnull @.str.26)
  %26 = call ptr @proto_tree_add_uint(ptr noundef %13, i32 noundef %3, ptr noundef %0, i32 noundef %.027, i32 noundef 1, i32 noundef %18)
  %27 = add i32 %.027, 1
  br label %14, !llvm.loop !12

.loopexit.loopexit:                               ; preds = %22
  %28 = call ptr @proto_tree_add_uint(ptr noundef %13, i32 noundef %3, ptr noundef %0, i32 noundef %.027, i32 noundef 1, i32 noundef %18)
  br label %.loopexit

.loopexit:                                        ; preds = %.loopexit.loopexit, %9
  call void @llvm.lifetime.end.p0(i64 8, ptr nonnull %7) #3
  ret void
}